target datalayout = "e-m:e-p270:32:32-p271:32:32-p272:64:64-i64:64-i128:128-f80:128-n8:16:32:64-S128"
target triple = "x86_64-pc-linux-gnu"

%"class.fmt::v9::basic_string_view" = type { ptr, i64 }
%"class.std::__cxx11::basic_string" = type { %"struct.std::__cxx11::basic_string<char>::_Alloc_hider", i64, %union.anon.0 }
%"struct.std::__cxx11::basic_string<char>::_Alloc_hider" = type { ptr }
%union.anon.0 = type { i64, [8 x i8] }
%"class.LIEF::ELF::DynamicEntryRunPath" = type { %"class.LIEF::ELF::DynamicEntry", %"class.std::__cxx11::basic_string" }
%"class.LIEF::ELF::DynamicEntry" = type { %"class.LIEF::Object", i64, i64 }
%"class.LIEF::Object" = type { ptr }
%"class.fmt::v9::basic_format_string" = type { %"class.fmt::v9::basic_string_view" }
%"class.fmt::v9::basic_format_args" = type { i64, %union.anon.437 }
%union.anon.437 = type { ptr }
%"class.fmt::v9::format_arg_store.1068" = type { %"struct.fmt::v9::detail::arg_data" }
%"struct.fmt::v9::detail::arg_data" = type { [1 x %"class.fmt::v9::detail::value"] }
%"class.fmt::v9::detail::value" = type { %union.anon.438 }
%union.anon.438 = type { i128 }
%"struct.fmt::v9::detail::arg_mapper" = type { i8 }
%"struct.fmt::v9::detail::string_value" = type { ptr, i64 }

@.str.2 = private unnamed_addr constant [7 x i8] c"{:<10}\00", align 1

; Function Attrs: mustprogress nounwind uwtable
define linkonce_odr hidden void @_ZN3fmt2v917basic_string_viewIcEC2ISt11char_traitsIcESaIcEEERKNSt7__cxx1112basic_stringIcT_T0_EE(ptr noundef nonnull align 8 dereferenceable(16) %0, ptr noundef nonnull align 8 dereferenceable(32) %1) unnamed_addr #1 comdat align 2 {
  %3 = alloca ptr, align 8
  %4 = alloca ptr, align 8
  store ptr %0, ptr %3, align 8
  store ptr %1, ptr %4, align 8
  %5 = load ptr, ptr %3, align 8
  %6 = getelementptr inbounds %"class.fmt::v9::basic_string_view", ptr %5, i32 0, i32 0
  %7 = load ptr, ptr %4, align 8
  %8 = call noundef ptr @_ZNKSt7__cxx1112basic_stringIcSt11char_traitsIcESaIcEE4dataEv(ptr noundef nonnull align 8 dereferenceable(32) %7) #16
  store ptr %8, ptr %6, align 8
  %9 = getelementptr inbounds %"class.fmt::v9::basic_string_view", ptr %5, i32 0, i32 1
  %10 = load ptr, ptr %4, align 8
  %11 = call noundef i64 @_ZNKSt7__cxx1112basic_stringIcSt11char_traitsIcESaIcEE4sizeEv(ptr noundef nonnull align 8 dereferenceable(32) %10) #16
  store i64 %11, ptr %9, align 8
  ret void
}

; Function Attrs: mustprogress nounwind uwtable
define linkonce_odr hidden noundef i64 @_ZNK3fmt2v917basic_string_viewIcE4sizeEv(ptr noundef nonnull align 8 dereferenceable(16) %0) #1 comdat align 2 {
  %2 = alloca ptr, align 8
  store ptr %0, ptr %2, align 8
  %3 = load ptr, ptr %2, align 8
  %4 = getelementptr inbounds %"class.fmt::v9::basic_string_view", ptr %3, i32 0, i32 1
  %5 = load i64, ptr %4, align 8
  ret i64 %5
}

; Function Attrs: mustprogress nounwind uwtable
define linkonce_odr hidden noundef ptr @_ZNK3fmt2v917basic_string_viewIcE4dataEv(ptr noundef nonnull align 8 dereferenceable(16) %0) #1 comdat align 2 {
  %2 = alloca ptr, align 8
  store ptr %0, ptr %2, align 8
  %3 = load ptr, ptr %2, align 8
  %4 = getelementptr inbounds %"class.fmt::v9::basic_string_view", ptr %3, i32 0, i32 0
  %5 = load ptr, ptr %4, align 8
  ret ptr %5
}

; Function Attrs: mustprogress nounwind uwtable
define linkonce_odr hidden { ptr, i64 } @_ZN3fmt2v96detail14to_string_viewIcSt11char_traitsIcESaIcEEENS0_17basic_string_viewIT_EERKNSt7__cxx1112basic_stringIS7_T0_T1_EE(ptr noundef nonnull align 8 dereferenceable(32) %0) #1 comdat {
  %2 = alloca %"class.fmt::v9::basic_string_view", align 8
  %3 = alloca ptr, align 8
  store ptr %0, ptr %3, align 8
  %4 = load ptr, ptr %3, align 8
  call void @_ZN3fmt2v917basic_string_viewIcEC2ISt11char_traitsIcESaIcEEERKNSt7__cxx1112basic_stringIcT_T0_EE(ptr noundef nonnull align 8 dereferenceable(16) %2, ptr noundef nonnull align 8 dereferenceable(32) %4) #16
  %5 = load { ptr, i64 }, ptr %2, align 8
  ret { ptr, i64 } %5
}

; Function Attrs: mustprogress uwtable
define linkonce_odr hidden { i64, i64 } @_ZN3fmt2v916make_format_argsINS0_20basic_format_contextINS0_8appenderEcEEJRKNSt7__cxx1112basic_stringIcSt11char_traitsIcESaIcEEEEEENS0_16format_arg_storeIT_JDpNSt9remove_cvINSt16remove_referenceIT0_E4typeEE4typeEEEEDpOSH_(ptr noundef nonnull align 8 dereferenceable(32) %0) #3 comdat {
  %2 = alloca %"class.fmt::v9::basic_string_view", align 8
  %3 = alloca ptr, align 8
  %4 = alloca %"class.fmt::v9::basic_string_view", align 8
  %5 = alloca ptr, align 8
  %6 = alloca ptr, align 8
  %7 = alloca %"class.fmt::v9::detail::value", align 16
  %8 = alloca ptr, align 8
  %9 = alloca ptr, align 8
  %10 = alloca %"class.fmt::v9::basic_string_view", align 8
  %11 = alloca %"struct.fmt::v9::detail::arg_mapper", align 1
  %12 = alloca i8, align 1
  %13 = alloca i8, align 1
  %14 = alloca i8, align 1
  %15 = alloca i8, align 1
  %16 = alloca %"class.fmt::v9::basic_string_view", align 8
  %17 = alloca ptr, align 8
  %18 = alloca i32, align 4
  %19 = alloca i32, align 4
  %20 = alloca ptr, align 8
  %21 = alloca %"class.fmt::v9::detail::value", align 16
  %22 = alloca ptr, align 8
  %23 = alloca ptr, align 8
  %24 = alloca ptr, align 8
  %25 = alloca ptr, align 8
  %26 = alloca ptr, align 8
  %27 = alloca ptr, align 8
  %28 = alloca %"class.fmt::v9::detail::value", align 16
  %29 = alloca %"class.fmt::v9::format_arg_store.1068", align 16
  %30 = alloca ptr, align 8
  store ptr %0, ptr %30, align 8
  %31 = load ptr, ptr %30, align 8
  store ptr %29, ptr %26, align 8
  store ptr %31, ptr %27, align 8
  %32 = load ptr, ptr %26, align 8
  %33 = load ptr, ptr %27, align 8
  store ptr %33, ptr %22, align 8
  %34 = load ptr, ptr %22, align 8
  store ptr %34, ptr %8, align 8
  %35 = load ptr, ptr %8, align 8
  store ptr %11, ptr %5, align 8
  store ptr %35, ptr %6, align 8
  %36 = load ptr, ptr %6, align 8
  %37 = call { ptr, i64 } @_ZN3fmt2v96detail14to_string_viewIcSt11char_traitsIcESaIcEEENS0_17basic_string_viewIT_EERKNSt7__cxx1112basic_stringIS7_T0_T1_EE(ptr noundef nonnull align 8 dereferenceable(32) %36)
  %38 = extractvalue { ptr, i64 } %37, 0
  store ptr %38, ptr %4, align 8
  %39 = getelementptr inbounds { ptr, i64 }, ptr %4, i32 0, i32 1
  %40 = extractvalue { ptr, i64 } %37, 1
  store i64 %40, ptr %39, align 8
  %41 = load { ptr, i64 }, ptr %4, align 8
  %42 = extractvalue { ptr, i64 } %41, 0
  store ptr %42, ptr %10, align 8
  %43 = getelementptr inbounds { ptr, i64 }, ptr %10, i32 0, i32 1
  %44 = extractvalue { ptr, i64 } %41, 1
  store i64 %44, ptr %43, align 8
  store ptr %10, ptr %9, align 8
  store i8 1, ptr %12, align 1
  store i8 1, ptr %13, align 1
  store i8 1, ptr %14, align 1
  store i8 1, ptr %15, align 1
  %45 = load ptr, ptr %9, align 8
  call void @llvm.memcpy.p0.p0.i64(ptr align 8 %16, ptr align 8 %45, i64 16, i1 false)
  %46 = load ptr, ptr %16, align 8
  %47 = getelementptr inbounds { ptr, i64 }, ptr %16, i32 0, i32 1
  %48 = load i64, ptr %47, align 8
  store ptr %46, ptr %2, align 8
  %49 = getelementptr inbounds { ptr, i64 }, ptr %2, i32 0, i32 1
  store i64 %48, ptr %49, align 8
  store ptr %7, ptr %3, align 8
  %50 = load ptr, ptr %3, align 8
  %51 = call noundef ptr @_ZNK3fmt2v917basic_string_viewIcE4dataEv(ptr noundef nonnull align 8 dereferenceable(16) %2) #16
  store ptr %51, ptr %50, align 16
  %52 = call noundef i64 @_ZNK3fmt2v917basic_string_viewIcE4sizeEv(ptr noundef nonnull align 8 dereferenceable(16) %2) #16
  %53 = getelementptr inbounds %"struct.fmt::v9::detail::string_value", ptr %50, i32 0, i32 1
  store i64 %52, ptr %53, align 8
  %54 = load { i64, i64 }, ptr %7, align 16
  %55 = extractvalue { i64, i64 } %54, 0
  store i64 %55, ptr %21, align 16
  %56 = getelementptr inbounds { i64, i64 }, ptr %21, i32 0, i32 1
  %57 = extractvalue { i64, i64 } %54, 1
  store i64 %57, ptr %56, align 8
  %58 = load { i64, i64 }, ptr %21, align 16
  %59 = extractvalue { i64, i64 } %58, 0
  store i64 %59, ptr %28, align 16
  %60 = getelementptr inbounds { i64, i64 }, ptr %28, i32 0, i32 1
  %61 = extractvalue { i64, i64 } %58, 1
  store i64 %61, ptr %60, align 8
  store ptr %32, ptr %24, align 8
  store ptr %28, ptr %25, align 8
  %62 = load ptr, ptr %24, align 8
  %63 = load ptr, ptr %25, align 8
  call void @llvm.memcpy.p0.p0.i64(ptr align 16 %62, ptr align 16 %63, i64 16, i1 false)
  store ptr %32, ptr %23, align 8
  %64 = load ptr, ptr %27, align 8
  store ptr null, ptr %17, align 8
  store i32 0, ptr %18, align 4
  store i32 0, ptr %19, align 4
  store ptr %64, ptr %20, align 8
  %65 = getelementptr inbounds %"class.fmt::v9::format_arg_store.1068", ptr %29, i32 0, i32 0
  %66 = getelementptr inbounds %"struct.fmt::v9::detail::arg_data", ptr %65, i32 0, i32 0
  %67 = load { i64, i64 }, ptr %66, align 16
  ret { i64, i64 } %67
}

; Function Attrs: mustprogress nounwind uwtable
define linkonce_odr hidden noundef nonnull align 8 dereferenceable(32) ptr @_ZNK4LIEF3ELF19DynamicEntryRunPath7runpathB5cxx11Ev(ptr noundef nonnull align 8 dereferenceable(56) %0) #1 comdat align 2 {
  %2 = alloca ptr, align 8
  store ptr %0, ptr %2, align 8
  %3 = load ptr, ptr %2, align 8
  %4 = getelementptr inbounds %"class.LIEF::ELF::DynamicEntryRunPath", ptr %3, i32 0, i32 1
  ret ptr %4
}

; Function Attrs: mustprogress nounwind uwtable
define linkonce_odr hidden noundef i64 @_ZNSt11char_traitsIcE6lengthEPKc(ptr noundef %0) #1 comdat align 2 {
  %2 = alloca ptr, align 8
  store ptr %0, ptr %2, align 8
  %3 = load ptr, ptr %2, align 8
  %4 = call i64 @strlen(ptr noundef %3) #16
  ret i64 %4
}

; Function Attrs: mustprogress uwtable
define noundef nonnull align 8 dereferenceable(8) ptr @_ZNK4LIEF3ELF19DynamicEntryRunPath5printERSo(ptr noundef nonnull align 8 dereferenceable(56) %0, ptr noundef nonnull align 8 dereferenceable(8) %1) unnamed_addr #3 align 2 personality ptr @__gxx_personality_v0 {
  %3 = alloca ptr, align 8
  %4 = alloca ptr, align 8
  %5 = alloca i64, align 8
  %6 = alloca ptr, align 8
  %7 = alloca ptr, align 8
  %8 = alloca ptr, align 8
  %9 = alloca ptr, align 8
  %10 = alloca %"class.fmt::v9::basic_string_view", align 8
  %11 = alloca ptr, align 8
  %12 = alloca ptr, align 8
  %13 = alloca ptr, align 8
  %14 = alloca ptr, align 8
  %15 = alloca ptr, align 8
  %16 = alloca ptr, align 8
  %17 = alloca %"class.fmt::v9::basic_format_string", align 8
  %18 = alloca ptr, align 8
  %19 = alloca %"class.fmt::v9::basic_string_view", align 8
  %20 = alloca %"class.fmt::v9::basic_format_args", align 8
  %21 = alloca %"class.fmt::v9::format_arg_store.1068", align 16
  %22 = alloca ptr, align 8
  %23 = alloca ptr, align 8
  %24 = alloca %"class.std::__cxx11::basic_string", align 8
  %25 = alloca %"class.fmt::v9::basic_format_string", align 8
  %26 = alloca ptr, align 8
  %27 = alloca i32, align 4
  store ptr %0, ptr %22, align 8
  store ptr %1, ptr %23, align 8
  %28 = load ptr, ptr %22, align 8
  %29 = load ptr, ptr %23, align 8
  %30 = call noundef nonnull align 8 dereferenceable(8) ptr @_ZNK4LIEF3ELF12DynamicEntry5printERSo(ptr noundef nonnull align 8 dereferenceable(24) %28, ptr noundef nonnull align 8 dereferenceable(8) %29)
  %31 = load ptr, ptr %23, align 8
  store ptr %25, ptr %14, align 8
  store ptr @.str.2, ptr %15, align 8
  %32 = load ptr, ptr %14, align 8
  %33 = load ptr, ptr %15, align 8
  store ptr %32, ptr %12, align 8
  store ptr %33, ptr %13, align 8
  %34 = load ptr, ptr %12, align 8
  %35 = load ptr, ptr %13, align 8
  store ptr %35, ptr %34, align 8
  %36 = getelementptr inbounds %"class.fmt::v9::basic_string_view", ptr %34, i32 0, i32 1
  %37 = load ptr, ptr %13, align 8
  %38 = call noundef i64 @_ZNSt11char_traitsIcE6lengthEPKc(ptr noundef %37)
  store i64 %38, ptr %36, align 8
  %39 = load ptr, ptr %15, align 8
  store ptr %39, ptr %3, align 8
  %40 = call noundef nonnull align 8 dereferenceable(32) ptr @_ZNK4LIEF3ELF19DynamicEntryRunPath7runpathB5cxx11Ev(ptr noundef nonnull align 8 dereferenceable(56) %28)
  %41 = getelementptr inbounds { ptr, i64 }, ptr %25, i32 0, i32 0
  %42 = load ptr, ptr %41, align 8
  %43 = getelementptr inbounds { ptr, i64 }, ptr %25, i32 0, i32 1
  %44 = load i64, ptr %43, align 8
  call void @llvm.experimental.noalias.scope.decl(metadata !7)
  store ptr %24, ptr %16, align 8, !noalias !7
  store ptr %42, ptr %17, align 8, !noalias !7
  %45 = getelementptr inbounds { ptr, i64 }, ptr %17, i32 0, i32 1
  store i64 %44, ptr %45, align 8, !noalias !7
  store ptr %40, ptr %18, align 8, !noalias !7
  store ptr %17, ptr %11, align 8
  %46 = load ptr, ptr %11, align 8
  call void @llvm.memcpy.p0.p0.i64(ptr align 8 %10, ptr align 8 %46, i64 16, i1 false)
  %47 = load { ptr, i64 }, ptr %10, align 8
  %48 = extractvalue { ptr, i64 } %47, 0
  store ptr %48, ptr %19, align 8, !noalias !7
  %49 = getelementptr inbounds { ptr, i64 }, ptr %19, i32 0, i32 1
  %50 = extractvalue { ptr, i64 } %47, 1
  store i64 %50, ptr %49, align 8, !noalias !7
  %51 = load ptr, ptr %18, align 8, !noalias !7
  %52 = call { i64, i64 } @_ZN3fmt2v916make_format_argsINS0_20basic_format_contextINS0_8appenderEcEEJRKNSt7__cxx1112basic_stringIcSt11char_traitsIcESaIcEEEEEENS0_16format_arg_storeIT_JDpNSt9remove_cvINSt16remove_referenceIT0_E4typeEE4typeEEEEDpOSH_(ptr noundef nonnull align 8 dereferenceable(32) %51)
  %53 = extractvalue { i64, i64 } %52, 0
  store i64 %53, ptr %21, align 16, !noalias !7
  %54 = getelementptr inbounds { i64, i64 }, ptr %21, i32 0, i32 1
  %55 = extractvalue { i64, i64 } %52, 1
  store i64 %55, ptr %54, align 8, !noalias !7
  store ptr %20, ptr %8, align 8
  store ptr %21, ptr %9, align 8
  %56 = load ptr, ptr %8, align 8
  %57 = load ptr, ptr %9, align 8
  store ptr %57, ptr %7, align 8
  %58 = load ptr, ptr %7, align 8
  store ptr %56, ptr %4, align 8
  store i64 13, ptr %5, align 8
  store ptr %58, ptr %6, align 8
  %59 = load ptr, ptr %4, align 8
  %60 = load i64, ptr %5, align 8
  store i64 %60, ptr %59, align 8
  %61 = getelementptr inbounds %"class.fmt::v9::basic_format_args", ptr %59, i32 0, i32 1
  %62 = load ptr, ptr %6, align 8
  store ptr %62, ptr %61, align 8
  %63 = load ptr, ptr %19, align 8, !noalias !7
  %64 = getelementptr inbounds { ptr, i64 }, ptr %19, i32 0, i32 1
  %65 = load i64, ptr %64, align 8, !noalias !7
  %66 = load i64, ptr %20, align 8, !noalias !7
  %67 = getelementptr inbounds { i64, ptr }, ptr %20, i32 0, i32 1
  %68 = load ptr, ptr %67, align 8, !noalias !7
  call void @_ZN3fmt2v97vformatB5cxx11ENS0_17basic_string_viewIcEENS0_17basic_format_argsINS0_20basic_format_contextINS0_8appenderEcEEEE(ptr dead_on_unwind writable sret(%"class.std::__cxx11::basic_string") align 8 %24, ptr %63, i64 %65, i64 %66, ptr %68)
  %69 = invoke noundef nonnull align 8 dereferenceable(8) ptr @_ZStlsIcSt11char_traitsIcESaIcEERSt13basic_ostreamIT_T0_ES7_RKNSt7__cxx1112basic_stringIS4_S5_T1_EE(ptr noundef nonnull align 8 dereferenceable(8) %31, ptr noundef nonnull align 8 dereferenceable(32) %24)
          to label %70 unwind label %72

70:                                               ; preds = %2
  call void @_ZNSt7__cxx1112basic_stringIcSt11char_traitsIcESaIcEED1Ev(ptr noundef nonnull align 8 dereferenceable(32) %24) #16
  %71 = load ptr, ptr %23, align 8
  ret ptr %71

72:                                               ; preds = %2
  %73 = landingpad { ptr, i32 }
          cleanup
  %74 = extractvalue { ptr, i32 } %73, 0
  store ptr %74, ptr %26, align 8
  %75 = extractvalue { ptr, i32 } %73, 1
  store i32 %75, ptr %27, align 4
  call void @_ZNSt7__cxx1112basic_stringIcSt11char_traitsIcESaIcEED1Ev(ptr noundef nonnull align 8 dereferenceable(32) %24) #16
  br label %76

76:                                               ; preds = %72
  %77 = load ptr, ptr %26, align 8
  %78 = load i32, ptr %27, align 4
  %79 = insertvalue { ptr, i32 } poison, ptr %77, 0
  %80 = insertvalue { ptr, i32 } %79, i32 %78, 1
  resume { ptr, i32 } %80
}